; Function Attrs: nounwind uwtable
define ptr @l_Lean_ensureReservedNameAvailable___rarg(ptr noundef %0, ptr noundef %1, ptr noundef %2, ptr noundef %3, ptr noundef %4) #1 {
  %6 = ptrtoint ptr %3 to i64
  %7 = and i64 %6, 1
  %.not = icmp eq i64 %7, 0
  br i1 %.not, label %8, label %lean_inc.exit21

8:                                                ; preds = %5
  %.val.i = load i32, ptr %3, align 4, !tbaa !4
  %9 = icmp sgt i32 %.val.i, 0
  br i1 %9, label %10, label %12, !prof !11

10:                                               ; preds = %8
  %11 = add nuw i32 %.val.i, 1
  store i32 %11, ptr %3, align 4, !tbaa !4
  br label %lean_inc.exit21

12:                                               ; preds = %8
  %.not.i22 = icmp eq i32 %.val.i, 0
  br i1 %.not.i22, label %lean_inc.exit21, label %13

13:                                               ; preds = %12
  tail call void @lean_inc_ref_cold(ptr noundef nonnull %3) #6
  br label %lean_inc.exit21

lean_inc.exit21:                                  ; preds = %13, %12, %10, %5
  %14 = tail call ptr @l_Lean_Name_str___override(ptr noundef %3, ptr noundef %4) #6
  %15 = getelementptr inbounds nuw i8, ptr %0, i64 16
  %16 = load ptr, ptr %15, align 8, !tbaa !9
  %17 = ptrtoint ptr %16 to i64
  %18 = and i64 %17, 1
  %.not29 = icmp eq i64 %18, 0
  br i1 %.not29, label %19, label %lean_inc.exit20

19:                                               ; preds = %lean_inc.exit21
  %.val.i23 = load i32, ptr %16, align 4, !tbaa !4
  %20 = icmp sgt i32 %.val.i23, 0
  br i1 %20, label %21, label %23, !prof !11

21:                                               ; preds = %19
  %22 = add nuw i32 %.val.i23, 1
  store i32 %22, ptr %16, align 4, !tbaa !4
  br label %lean_inc.exit20

23:                                               ; preds = %19
  %.not.i24 = icmp eq i32 %.val.i23, 0
  br i1 %.not.i24, label %lean_inc.exit20, label %24

24:                                               ; preds = %23
  tail call void @lean_inc_ref_cold(ptr noundef nonnull %16) #6
  br label %lean_inc.exit20

lean_inc.exit20:                                  ; preds = %24, %23, %21, %lean_inc.exit21
  %25 = getelementptr inbounds nuw i8, ptr %1, i64 8
  %26 = load ptr, ptr %25, align 8, !tbaa !9
  %27 = ptrtoint ptr %26 to i64
  %28 = and i64 %27, 1
  %.not30 = icmp eq i64 %28, 0
  br i1 %.not30, label %29, label %lean_inc.exit

29:                                               ; preds = %lean_inc.exit20
  %.val.i26 = load i32, ptr %26, align 4, !tbaa !4
  %30 = icmp sgt i32 %.val.i26, 0
  br i1 %30, label %31, label %33, !prof !11

31:                                               ; preds = %29
  %32 = add nuw i32 %.val.i26, 1
  store i32 %32, ptr %26, align 4, !tbaa !4
  br label %lean_inc.exit

33:                                               ; preds = %29
  %.not.i27 = icmp eq i32 %.val.i26, 0
  br i1 %.not.i27, label %lean_inc.exit, label %34

34:                                               ; preds = %33
  tail call void @lean_inc_ref_cold(ptr noundef nonnull %26) #6
  br label %lean_inc.exit

lean_inc.exit:                                    ; preds = %34, %33, %31, %lean_inc.exit20
  %35 = ptrtoint ptr %1 to i64
  %36 = and i64 %35, 1
  %.not31 = icmp eq i64 %36, 0
  br i1 %.not31, label %37, label %lean_dec.exit

37:                                               ; preds = %lean_inc.exit
  %38 = load i32, ptr %1, align 4, !tbaa !4
  %39 = icmp sgt i32 %38, 1
  br i1 %39, label %40, label %42, !prof !11

40:                                               ; preds = %37
  %41 = add nsw i32 %38, -1
  store i32 %41, ptr %1, align 4, !tbaa !4
  br label %lean_dec.exit

42:                                               ; preds = %37
  %.not.i = icmp eq i32 %38, 0
  br i1 %.not.i, label %lean_dec.exit, label %43

43:                                               ; preds = %42
  tail call void @lean_dec_ref_cold(ptr noundef nonnull %1) #6
  br label %lean_dec.exit

lean_dec.exit:                                    ; preds = %43, %42, %40, %lean_inc.exit
  tail call void @lean_inc_heartbeat() #6
  %44 = tail call noalias ptr @mi_malloc_small(i64 noundef 56) #6
  %45 = icmp eq ptr %44, null
  br i1 %45, label %46, label %lean_alloc_closure.exit

46:                                               ; preds = %lean_dec.exit
  tail call void @lean_internal_panic_out_of_memory() #7
  unreachable

lean_alloc_closure.exit:                          ; preds = %lean_dec.exit
  %47 = getelementptr inbounds nuw i8, ptr %44, i64 4
  store i32 1, ptr %44, align 4, !tbaa !4
  store i32 -184549320, ptr %47, align 4
  %48 = getelementptr inbounds nuw i8, ptr %44, i64 8
  store ptr @l_Lean_ensureReservedNameAvailable___rarg___lambda__1, ptr %48, align 8, !tbaa !9
  %49 = getelementptr inbounds nuw i8, ptr %44, i64 16
  store i16 5, ptr %49, align 8, !tbaa !14
  %50 = getelementptr inbounds nuw i8, ptr %44, i64 18
  store i16 4, ptr %50, align 2, !tbaa !14
  %51 = getelementptr inbounds nuw i8, ptr %44, i64 24
  store ptr %14, ptr %51, align 8, !tbaa !9
  %52 = getelementptr inbounds nuw i8, ptr %44, i64 32
  store ptr %0, ptr %52, align 8, !tbaa !9
  %53 = getelementptr inbounds nuw i8, ptr %44, i64 40
  store ptr %2, ptr %53, align 8, !tbaa !9
  %54 = getelementptr inbounds nuw i8, ptr %44, i64 48
  store ptr %3, ptr %54, align 8, !tbaa !9
  %55 = tail call ptr @lean_apply_4(ptr noundef %16, ptr noundef nonnull inttoptr (i64 1 to ptr), ptr noundef nonnull inttoptr (i64 1 to ptr), ptr noundef %26, ptr noundef nonnull %44) #6
  ret ptr %55
}